; Function Attrs: mustprogress uwtable
define noundef zeroext i1 @_ZN7rocksdb23BlockBasedTableIterator16NextAndGetResultEPNS_13IterateResultE(ptr noundef nonnull align 8 dereferenceable(784) %this, ptr nocapture noundef writeonly %result) unnamed_addr #3 align 2 {
entry:
  tail call void @_ZN7rocksdb23BlockBasedTableIterator4NextEv(ptr noundef nonnull align 8 dereferenceable(784) %this)
  %vtable = load ptr, ptr %this, align 8
  %vfn = getelementptr inbounds i8, ptr %vtable, i64 24
  %0 = load ptr, ptr %vfn, align 8
  %call = tail call noundef zeroext i1 %0(ptr noundef nonnull align 8 dereferenceable(784) %this)
  br i1 %call, label %if.then, label %if.end

if.then:                                          ; preds = %entry
  %vtable2 = load ptr, ptr %this, align 8
  %vfn3 = getelementptr inbounds i8, ptr %vtable2, i64 88
  %1 = load ptr, ptr %vfn3, align 8
  %call4 = tail call { ptr, i64 } %1(ptr noundef nonnull align 8 dereferenceable(784) %this)
  %2 = extractvalue { ptr, i64 } %call4, 0
  %3 = extractvalue { ptr, i64 } %call4, 1
  store ptr %2, ptr %result, align 8
  %ref.tmp.sroa.2.0.key.sroa_idx = getelementptr inbounds i8, ptr %result, i64 8
  store i64 %3, ptr %ref.tmp.sroa.2.0.key.sroa_idx, align 8
  %vtable5 = load ptr, ptr %this, align 8
  %vfn6 = getelementptr inbounds i8, ptr %vtable5, i64 136
  %4 = load ptr, ptr %vfn6, align 8
  %call7 = tail call noundef signext i8 %4(ptr noundef nonnull align 8 dereferenceable(784) %this)
  %bound_check_result = getelementptr inbounds i8, ptr %result, i64 16
  store i8 %call7, ptr %bound_check_result, align 8
  %is_at_first_key_from_index_ = getelementptr inbounds i8, ptr %this, i64 684
  %5 = load i8, ptr %is_at_first_key_from_index_, align 4
  %6 = and i8 %5, 1
  %value_prepared = getelementptr inbounds i8, ptr %result, i64 17
  %frombool9 = xor i8 %6, 1
  store i8 %frombool9, ptr %value_prepared, align 1
  br label %if.end

if.end:                                           ; preds = %if.then, %entry
  ret i1 %call
}